target datalayout = "e-m:e-p270:32:32-p271:32:32-p272:64:64-i64:64-i128:128-f80:128-n8:16:32:64-S128"
target triple = "x86_64-pc-linux-gnu"

%struct.png_info_def = type { i32, i32, i32, i64, ptr, i16, i16, i8, i8, i8, i8, i8, i8, i8, i8, [8 x i8], %struct.png_colorspace, ptr, ptr, i32, i32, i32, ptr, %struct.png_time_struct, %struct.png_color_8_struct, ptr, %struct.png_color_16_struct, %struct.png_color_16_struct, i32, i32, i8, i32, i32, i8, ptr, ptr, i32, i32, ptr, ptr, i8, i8, i32, ptr, i32, ptr, i32, i8, ptr, ptr, ptr }
%struct.png_colorspace = type { i32, %struct.png_xy, %struct.png_XYZ, i16, i16 }
%struct.png_xy = type { i32, i32, i32, i32, i32, i32, i32, i32 }
%struct.png_XYZ = type { i32, i32, i32, i32, i32, i32, i32, i32, i32 }
%struct.png_time_struct = type { i16, i8, i8, i8, i8, i8 }
%struct.png_color_8_struct = type { i8, i8, i8, i8, i8 }
%struct.png_color_16_struct = type { i8, i16, i16, i16, i16 }

; Function Attrs: nounwind uwtable
define hidden void @png_set_IHDR(ptr noalias noundef %0, ptr noalias noundef %1, i32 noundef %2, i32 noundef %3, i32 noundef %4, i32 noundef %5, i32 noundef %6, i32 noundef %7, i32 noundef %8) #0 {
  %10 = alloca ptr, align 8
  %11 = alloca ptr, align 8
  %12 = alloca i32, align 4
  %13 = alloca i32, align 4
  %14 = alloca i32, align 4
  %15 = alloca i32, align 4
  %16 = alloca i32, align 4
  %17 = alloca i32, align 4
  %18 = alloca i32, align 4
  store ptr %0, ptr %10, align 8
  store ptr %1, ptr %11, align 8
  store i32 %2, ptr %12, align 4
  store i32 %3, ptr %13, align 4
  store i32 %4, ptr %14, align 4
  store i32 %5, ptr %15, align 4
  store i32 %6, ptr %16, align 4
  store i32 %7, ptr %17, align 4
  store i32 %8, ptr %18, align 4
  %19 = load ptr, ptr %10, align 8
  %20 = icmp eq ptr %19, null
  br i1 %20, label %24, label %21

21:                                               ; preds = %9
  %22 = load ptr, ptr %11, align 8
  %23 = icmp eq ptr %22, null
  br i1 %23, label %24, label %25

24:                                               ; preds = %21, %9
  br label %154

25:                                               ; preds = %21
  %26 = load i32, ptr %12, align 4
  %27 = load ptr, ptr %11, align 8
  %28 = getelementptr inbounds %struct.png_info_def, ptr %27, i32 0, i32 0
  store i32 %26, ptr %28, align 8
  %29 = load i32, ptr %13, align 4
  %30 = load ptr, ptr %11, align 8
  %31 = getelementptr inbounds %struct.png_info_def, ptr %30, i32 0, i32 1
  store i32 %29, ptr %31, align 4
  %32 = load i32, ptr %14, align 4
  %33 = trunc i32 %32 to i8
  %34 = load ptr, ptr %11, align 8
  %35 = getelementptr inbounds %struct.png_info_def, ptr %34, i32 0, i32 7
  store i8 %33, ptr %35, align 4
  %36 = load i32, ptr %15, align 4
  %37 = trunc i32 %36 to i8
  %38 = load ptr, ptr %11, align 8
  %39 = getelementptr inbounds %struct.png_info_def, ptr %38, i32 0, i32 8
  store i8 %37, ptr %39, align 1
  %40 = load i32, ptr %17, align 4
  %41 = trunc i32 %40 to i8
  %42 = load ptr, ptr %11, align 8
  %43 = getelementptr inbounds %struct.png_info_def, ptr %42, i32 0, i32 9
  store i8 %41, ptr %43, align 2
  %44 = load i32, ptr %18, align 4
  %45 = trunc i32 %44 to i8
  %46 = load ptr, ptr %11, align 8
  %47 = getelementptr inbounds %struct.png_info_def, ptr %46, i32 0, i32 10
  store i8 %45, ptr %47, align 1
  %48 = load i32, ptr %16, align 4
  %49 = trunc i32 %48 to i8
  %50 = load ptr, ptr %11, align 8
  %51 = getelementptr inbounds %struct.png_info_def, ptr %50, i32 0, i32 11
  store i8 %49, ptr %51, align 8
  %52 = load ptr, ptr %10, align 8
  %53 = load ptr, ptr %11, align 8
  %54 = getelementptr inbounds %struct.png_info_def, ptr %53, i32 0, i32 0
  %55 = load i32, ptr %54, align 8
  %56 = load ptr, ptr %11, align 8
  %57 = getelementptr inbounds %struct.png_info_def, ptr %56, i32 0, i32 1
  %58 = load i32, ptr %57, align 4
  %59 = load ptr, ptr %11, align 8
  %60 = getelementptr inbounds %struct.png_info_def, ptr %59, i32 0, i32 7
  %61 = load i8, ptr %60, align 4
  %62 = zext i8 %61 to i32
  %63 = load ptr, ptr %11, align 8
  %64 = getelementptr inbounds %struct.png_info_def, ptr %63, i32 0, i32 8
  %65 = load i8, ptr %64, align 1
  %66 = zext i8 %65 to i32
  %67 = load ptr, ptr %11, align 8
  %68 = getelementptr inbounds %struct.png_info_def, ptr %67, i32 0, i32 11
  %69 = load i8, ptr %68, align 8
  %70 = zext i8 %69 to i32
  %71 = load ptr, ptr %11, align 8
  %72 = getelementptr inbounds %struct.png_info_def, ptr %71, i32 0, i32 9
  %73 = load i8, ptr %72, align 2
  %74 = zext i8 %73 to i32
  %75 = load ptr, ptr %11, align 8
  %76 = getelementptr inbounds %struct.png_info_def, ptr %75, i32 0, i32 10
  %77 = load i8, ptr %76, align 1
  %78 = zext i8 %77 to i32
  call void @png_check_IHDR(ptr noundef %52, i32 noundef %55, i32 noundef %58, i32 noundef %62, i32 noundef %66, i32 noundef %70, i32 noundef %74, i32 noundef %78)
  %79 = load ptr, ptr %11, align 8
  %80 = getelementptr inbounds %struct.png_info_def, ptr %79, i32 0, i32 8
  %81 = load i8, ptr %80, align 1
  %82 = zext i8 %81 to i32
  %83 = icmp eq i32 %82, 3
  br i1 %83, label %84, label %87

84:                                               ; preds = %25
  %85 = load ptr, ptr %11, align 8
  %86 = getelementptr inbounds %struct.png_info_def, ptr %85, i32 0, i32 12
  store i8 1, ptr %86, align 1
  br label %101

87:                                               ; preds = %25
  %88 = load ptr, ptr %11, align 8
  %89 = getelementptr inbounds %struct.png_info_def, ptr %88, i32 0, i32 8
  %90 = load i8, ptr %89, align 1
  %91 = zext i8 %90 to i32
  %92 = and i32 %91, 2
  %93 = icmp ne i32 %92, 0
  br i1 %93, label %94, label %97

94:                                               ; preds = %87
  %95 = load ptr, ptr %11, align 8
  %96 = getelementptr inbounds %struct.png_info_def, ptr %95, i32 0, i32 12
  store i8 3, ptr %96, align 1
  br label %100

97:                                               ; preds = %87
  %98 = load ptr, ptr %11, align 8
  %99 = getelementptr inbounds %struct.png_info_def, ptr %98, i32 0, i32 12
  store i8 1, ptr %99, align 1
  br label %100

100:                                              ; preds = %97, %94
  br label %101

101:                                              ; preds = %100, %84
  %102 = load ptr, ptr %11, align 8
  %103 = getelementptr inbounds %struct.png_info_def, ptr %102, i32 0, i32 8
  %104 = load i8, ptr %103, align 1
  %105 = zext i8 %104 to i32
  %106 = and i32 %105, 4
  %107 = icmp ne i32 %106, 0
  br i1 %107, label %108, label %113

108:                                              ; preds = %101
  %109 = load ptr, ptr %11, align 8
  %110 = getelementptr inbounds %struct.png_info_def, ptr %109, i32 0, i32 12
  %111 = load i8, ptr %110, align 1
  %112 = add i8 %111, 1
  store i8 %112, ptr %110, align 1
  br label %113

113:                                              ; preds = %108, %101
  %114 = load ptr, ptr %11, align 8
  %115 = getelementptr inbounds %struct.png_info_def, ptr %114, i32 0, i32 12
  %116 = load i8, ptr %115, align 1
  %117 = zext i8 %116 to i32
  %118 = load ptr, ptr %11, align 8
  %119 = getelementptr inbounds %struct.png_info_def, ptr %118, i32 0, i32 7
  %120 = load i8, ptr %119, align 4
  %121 = zext i8 %120 to i32
  %122 = mul nsw i32 %117, %121
  %123 = trunc i32 %122 to i8
  %124 = load ptr, ptr %11, align 8
  %125 = getelementptr inbounds %struct.png_info_def, ptr %124, i32 0, i32 13
  store i8 %123, ptr %125, align 2
  %126 = load ptr, ptr %11, align 8
  %127 = getelementptr inbounds %struct.png_info_def, ptr %126, i32 0, i32 13
  %128 = load i8, ptr %127, align 2
  %129 = zext i8 %128 to i32
  %130 = icmp sge i32 %129, 8
  br i1 %130, label %131, label %140

131:                                              ; preds = %113
  %132 = load i32, ptr %12, align 4
  %133 = zext i32 %132 to i64
  %134 = load ptr, ptr %11, align 8
  %135 = getelementptr inbounds %struct.png_info_def, ptr %134, i32 0, i32 13
  %136 = load i8, ptr %135, align 2
  %137 = zext i8 %136 to i64
  %138 = lshr i64 %137, 3
  %139 = mul i64 %133, %138
  br label %150

140:                                              ; preds = %113
  %141 = load i32, ptr %12, align 4
  %142 = zext i32 %141 to i64
  %143 = load ptr, ptr %11, align 8
  %144 = getelementptr inbounds %struct.png_info_def, ptr %143, i32 0, i32 13
  %145 = load i8, ptr %144, align 2
  %146 = zext i8 %145 to i64
  %147 = mul i64 %142, %146
  %148 = add i64 %147, 7
  %149 = lshr i64 %148, 3
  br label %150

150:                                              ; preds = %140, %131
  %151 = phi i64 [ %139, %131 ], [ %149, %140 ]
  %152 = load ptr, ptr %11, align 8
  %153 = getelementptr inbounds %struct.png_info_def, ptr %152, i32 0, i32 3
  store i64 %151, ptr %153, align 8
  br label %154

154:                                              ; preds = %150, %24
  ret void
}